; Function Attrs: mustprogress uwtable
define hidden void @_ZN4cvc58internal6theory11quantifiers13QModelBuilderC2ERNS0_3EnvERNS2_16QuantifiersStateERNS2_27QuantifiersInferenceManagerERNS2_19QuantifiersRegistryERNS2_12TermRegistryE(ptr noundef nonnull align 8 dereferenceable(176) %this, ptr noundef nonnull align 8 dereferenceable(576) %env, ptr noundef nonnull align 8 dereferenceable(248) %qs, ptr noundef nonnull align 8 dereferenceable(376) %qim, ptr noundef nonnull align 8 dereferenceable(488) %qr, ptr noundef nonnull align 8 dereferenceable(208) %tr) unnamed_addr #3 align 2 personality ptr @__gxx_personality_v0 {
entry:
  tail call void @_ZN4cvc58internal6theory24TheoryEngineModelBuilderC2ERNS0_3EnvE(ptr noundef nonnull align 8 dereferenceable(120) %this, ptr noundef nonnull align 8 dereferenceable(576) %env)
  store ptr getelementptr inbounds ({ [10 x ptr] }, ptr @_ZTVN4cvc58internal6theory11quantifiers13QModelBuilderE, i64 0, i32 0, i64 2), ptr %this, align 8
  %d_addedLemmas = getelementptr inbounds i8, ptr %this, i64 120
  store i32 0, ptr %d_addedLemmas, align 8
  %d_triedLemmas = getelementptr inbounds i8, ptr %this, i64 124
  store i32 0, ptr %d_triedLemmas, align 4
  %d_qstate = getelementptr inbounds i8, ptr %this, i64 128
  store ptr %qs, ptr %d_qstate, align 8
  %d_qim = getelementptr inbounds i8, ptr %this, i64 136
  store ptr %qim, ptr %d_qim, align 8
  %d_qreg = getelementptr inbounds i8, ptr %this, i64 144
  store ptr %qr, ptr %d_qreg, align 8
  %d_treg = getelementptr inbounds i8, ptr %this, i64 152
  store ptr %tr, ptr %d_treg, align 8
  %d_model = getelementptr inbounds i8, ptr %this, i64 160
  tail call void @llvm.memset.p0.i64(ptr noundef nonnull align 8 dereferenceable(16) %d_model, i8 0, i64 16, i1 false)
  ret void
}